; Function Attrs: mustprogress uwtable
define noundef range(i32 0, 8) i32 @_ZN5boost3log11v2_mt_posix5sinks6syslog10make_levelEi(i32 noundef returned %0) local_unnamed_addr #4 personality ptr @__gxx_personality_v0 {
  %2 = alloca %"class.std::out_of_range", align 8
  %3 = alloca %"struct.boost::source_location", align 8
  %4 = icmp ugt i32 %0, 7
  br i1 %4, label %5, label %12, !prof !3

5:                                                ; preds = %1
  call void @llvm.lifetime.start.p0(i64 16, ptr nonnull %2) #33
  call void @_ZNSt12out_of_rangeC1EPKc(ptr noundef nonnull align 8 dereferenceable(16) %2, ptr noundef nonnull @.str)
  call void @llvm.lifetime.start.p0(i64 24, ptr nonnull %3) #33
  store ptr @.str.4, ptr %3, align 8, !tbaa !4
  %6 = getelementptr inbounds nuw i8, ptr %3, i64 8
  store ptr @.str.5, ptr %6, align 8, !tbaa !10
  %7 = getelementptr inbounds nuw i8, ptr %3, i64 16
  store i32 68, ptr %7, align 8, !tbaa !11
  %8 = getelementptr inbounds nuw i8, ptr %3, i64 20
  store i32 90, ptr %8, align 4, !tbaa !12
  invoke void @_ZN5boost15throw_exceptionISt12out_of_rangeEEvRKT_RKNS_15source_locationE(ptr noundef nonnull align 8 dereferenceable(16) %2, ptr noundef nonnull align 8 dereferenceable(24) %3) #35
          to label %9 unwind label %10

9:                                                ; preds = %5
  unreachable

10:                                               ; preds = %5
  %11 = landingpad { ptr, i32 }
          cleanup
  call void @llvm.lifetime.end.p0(i64 24, ptr nonnull %3) #33
  call void @_ZNSt12out_of_rangeD1Ev(ptr noundef nonnull align 8 dereferenceable(16) %2) #33
  call void @llvm.lifetime.end.p0(i64 16, ptr nonnull %2) #33
  resume { ptr, i32 } %11

12:                                               ; preds = %1
  ret i32 %0
}